; Function Attrs: uwtable
define void @_ZThn16_N3zmq12udp_engine_t9terminateEv(ptr noundef %0) unnamed_addr #13 align 2 {
  %2 = getelementptr inbounds nuw i8, ptr %0, i64 80
  %3 = load i8, ptr %2, align 8, !tbaa !18, !range !97, !noundef !98
  %4 = trunc nuw i8 %3 to i1
  br i1 %4, label %_ZN3zmq12udp_engine_t9terminateEv.exit, label %5, !prof !107

5:                                                ; preds = %1
  %6 = load ptr, ptr @stderr, align 8, !tbaa !105
  %7 = tail call i32 (ptr, ptr, ...) @fprintf(ptr noundef %6, ptr noundef nonnull @.str, ptr noundef nonnull @.str.10, ptr noundef nonnull @.str.2, i32 noundef 326) #27
  %8 = load ptr, ptr @stderr, align 8, !tbaa !105
  %9 = tail call i32 @fflush(ptr noundef %8)
  tail call void @_ZN3zmq9zmq_abortEPKc(ptr noundef nonnull @.str.10)
  br label %_ZN3zmq12udp_engine_t9terminateEv.exit

_ZN3zmq12udp_engine_t9terminateEv.exit:           ; preds = %1, %5
  %10 = getelementptr inbounds i8, ptr %0, i64 -16
  store i8 0, ptr %2, align 8, !tbaa !18
  %11 = getelementptr inbounds nuw i8, ptr %0, i64 96
  %12 = load ptr, ptr %11, align 8, !tbaa !110
  tail call void @_ZN3zmq11io_object_t5rm_fdEPv(ptr noundef nonnull align 8 dereferenceable(17880) %10, ptr noundef %12)
  tail call void @_ZN3zmq11io_object_t6unplugEv(ptr noundef nonnull align 8 dereferenceable(17880) %10)
  tail call void @_ZN3zmq12udp_engine_tD1Ev(ptr noundef nonnull align 8 dereferenceable(17880) %10) #23
  tail call void @_ZdlPv(ptr noundef nonnull align 8 dereferenceable(17880) %10) #26
  ret void
}